target datalayout = "e-m:e-p270:32:32-p271:32:32-p272:64:64-i64:64-i128:128-f80:128-n8:16:32:64-S128"
target triple = "x86_64-pc-linux-gnu"

%"struct.boost::context::stack_context" = type { i64, ptr }
%"struct.nix::VirtualStackAllocator" = type { ptr }
%class.anon.113 = type { ptr }
%"struct.boost::context::detail::transfer_t" = type { ptr, ptr }
%class.anon.114 = type { ptr, %class.anon.113 }
%"class.boost::context::detail::fiber_record" = type { %"struct.boost::context::stack_context", %"struct.nix::VirtualStackAllocator", %class.anon.114 }

; Function Attrs: mustprogress uwtable
define linkonce_odr void @_ZN3nix21VirtualStackAllocator10deallocateEN5boost7context13stack_contextE(ptr noundef nonnull align 8 dereferenceable(8) %0, i64 %1, ptr %2) #3 comdat align 2 {
  %4 = alloca %"struct.boost::context::stack_context", align 8
  %5 = alloca ptr, align 8
  %6 = alloca %"struct.boost::context::stack_context", align 8
  %7 = getelementptr inbounds { i64, ptr }, ptr %4, i32 0, i32 0
  store i64 %1, ptr %7, align 8
  %8 = getelementptr inbounds { i64, ptr }, ptr %4, i32 0, i32 1
  store ptr %2, ptr %8, align 8
  store ptr %0, ptr %5, align 8
  %9 = load ptr, ptr %5, align 8
  %10 = getelementptr inbounds %"struct.nix::VirtualStackAllocator", ptr %9, i32 0, i32 0
  %11 = load ptr, ptr %10, align 8
  call void @llvm.memcpy.p0.p0.i64(ptr align 8 %6, ptr align 8 %4, i64 16, i1 false)
  %12 = getelementptr inbounds { i64, ptr }, ptr %6, i32 0, i32 0
  %13 = load i64, ptr %12, align 8
  %14 = getelementptr inbounds { i64, ptr }, ptr %6, i32 0, i32 1
  %15 = load ptr, ptr %14, align 8
  %16 = load ptr, ptr %11, align 8
  %17 = getelementptr inbounds ptr, ptr %16, i64 1
  %18 = load ptr, ptr %17, align 8
  call void %18(ptr noundef nonnull align 8 dereferenceable(8) %11, i64 %13, ptr %15)
  ret void
}

; Function Attrs: mustprogress nounwind uwtable
define internal void @_ZN5boost7context6detail12fiber_recordINS0_5fiberEN3nix21VirtualStackAllocatorEZNS_11coroutines26detail14push_coroutineIbE13control_blockC1IS5_ZZNS4_12sourceToSinkESt8functionIFvRNS4_6SourceEEEEN12SourceToSinkclESt17basic_string_viewIcSt11char_traitsIcEEEUlRNS7_14pull_coroutineIbEEE_EENS0_12preallocatedEOT_OT0_EUlOS3_E_E7destroyEPSX_(ptr noundef %0) #2 align 2 personality ptr @__gxx_personality_v0 {
  %2 = alloca ptr, align 8
  %3 = alloca %"struct.nix::VirtualStackAllocator", align 8
  %4 = alloca %"struct.boost::context::stack_context", align 8
  %5 = alloca %"struct.boost::context::stack_context", align 8
  store ptr %0, ptr %2, align 8
  %6 = load ptr, ptr %2, align 8
  %7 = getelementptr inbounds %"class.boost::context::detail::fiber_record", ptr %6, i32 0, i32 1
  call void @llvm.memcpy.p0.p0.i64(ptr align 8 %3, ptr align 8 %7, i64 8, i1 false)
  %8 = load ptr, ptr %2, align 8
  %9 = getelementptr inbounds %"class.boost::context::detail::fiber_record", ptr %8, i32 0, i32 0
  call void @llvm.memcpy.p0.p0.i64(ptr align 8 %4, ptr align 8 %9, i64 16, i1 false)
  call void @llvm.memcpy.p0.p0.i64(ptr align 8 %5, ptr align 8 %4, i64 16, i1 false)
  %10 = getelementptr inbounds { i64, ptr }, ptr %5, i32 0, i32 0
  %11 = load i64, ptr %10, align 8
  %12 = getelementptr inbounds { i64, ptr }, ptr %5, i32 0, i32 1
  %13 = load ptr, ptr %12, align 8
  invoke void @_ZN3nix21VirtualStackAllocator10deallocateEN5boost7context13stack_contextE(ptr noundef nonnull align 8 dereferenceable(8) %3, i64 %11, ptr %13)
          to label %14 unwind label %15

14:                                               ; preds = %1
  ret void

15:                                               ; preds = %1
  %16 = landingpad { ptr, i32 }
          catch ptr null
  %17 = extractvalue { ptr, i32 } %16, 0
  call void @__clang_call_terminate(ptr %17) #24
  unreachable
}

; Function Attrs: mustprogress nounwind uwtable
define internal void @_ZN5boost7context6detail12fiber_recordINS0_5fiberEN3nix21VirtualStackAllocatorEZNS_11coroutines26detail14push_coroutineIbE13control_blockC1IS5_ZZNS4_12sourceToSinkESt8functionIFvRNS4_6SourceEEEEN12SourceToSinkclESt17basic_string_viewIcSt11char_traitsIcEEEUlRNS7_14pull_coroutineIbEEE_EENS0_12preallocatedEOT_OT0_EUlOS3_E_E10deallocateEv(ptr noundef nonnull align 8 dereferenceable(40) %0) #2 align 2 {
  %2 = alloca ptr, align 8
  store ptr %0, ptr %2, align 8
  %3 = load ptr, ptr %2, align 8
  call void @_ZN5boost7context6detail12fiber_recordINS0_5fiberEN3nix21VirtualStackAllocatorEZNS_11coroutines26detail14push_coroutineIbE13control_blockC1IS5_ZZNS4_12sourceToSinkESt8functionIFvRNS4_6SourceEEEEN12SourceToSinkclESt17basic_string_viewIcSt11char_traitsIcEEEUlRNS7_14pull_coroutineIbEEE_EENS0_12preallocatedEOT_OT0_EUlOS3_E_E7destroyEPSX_(ptr noundef %3) #1
  ret void
}

; Function Attrs: mustprogress nounwind uwtable
define internal { ptr, ptr } @_ZN5boost7context6detail10fiber_exitINS1_12fiber_recordINS0_5fiberEN3nix21VirtualStackAllocatorEZNS_11coroutines26detail14push_coroutineIbE13control_blockC1IS6_ZZNS5_12sourceToSinkESt8functionIFvRNS5_6SourceEEEEN12SourceToSinkclESt17basic_string_viewIcSt11char_traitsIcEEEUlRNS8_14pull_coroutineIbEEE_EENS0_12preallocatedEOT_OT0_EUlOS4_E_EEEENS1_10transfer_tESZ_(ptr %0, ptr %1) #2 {
  %3 = alloca %"struct.boost::context::detail::transfer_t", align 8
  %4 = alloca %"struct.boost::context::detail::transfer_t", align 8
  %5 = alloca ptr, align 8
  %6 = getelementptr inbounds { ptr, ptr }, ptr %4, i32 0, i32 0
  store ptr %0, ptr %6, align 8
  %7 = getelementptr inbounds { ptr, ptr }, ptr %4, i32 0, i32 1
  store ptr %1, ptr %7, align 8
  %8 = getelementptr inbounds %"struct.boost::context::detail::transfer_t", ptr %4, i32 0, i32 1
  %9 = load ptr, ptr %8, align 8
  store ptr %9, ptr %5, align 8
  %10 = load ptr, ptr %5, align 8
  call void @_ZN5boost7context6detail12fiber_recordINS0_5fiberEN3nix21VirtualStackAllocatorEZNS_11coroutines26detail14push_coroutineIbE13control_blockC1IS5_ZZNS4_12sourceToSinkESt8functionIFvRNS4_6SourceEEEEN12SourceToSinkclESt17basic_string_viewIcSt11char_traitsIcEEEUlRNS7_14pull_coroutineIbEEE_EENS0_12preallocatedEOT_OT0_EUlOS3_E_E10deallocateEv(ptr noundef nonnull align 8 dereferenceable(40) %10) #1
  %11 = getelementptr inbounds %"struct.boost::context::detail::transfer_t", ptr %3, i32 0, i32 0
  store ptr null, ptr %11, align 8
  %12 = getelementptr inbounds %"struct.boost::context::detail::transfer_t", ptr %3, i32 0, i32 1
  store ptr null, ptr %12, align 8
  %13 = load { ptr, ptr }, ptr %3, align 8
  ret { ptr, ptr } %13
}