; Function Attrs: mustprogress nounwind uwtable
define internal { ptr, ptr } @_ZN5boost7context6detail10fiber_exitINS1_12fiber_recordINS0_5fiberEN3nix21VirtualStackAllocatorEZNS_11coroutines26detail14push_coroutineIbE13control_blockC1IS6_ZZNS5_12sourceToSinkESt8functionIFvRNS5_6SourceEEEEN12SourceToSinkclESt17basic_string_viewIcSt11char_traitsIcEEEUlRNS8_14pull_coroutineIbEEE_EENS0_12preallocatedEOT_OT0_EUlOS4_E_EEEENS1_10transfer_tESZ_(ptr nocapture readnone %0, ptr nocapture readonly %1) #3 personality ptr @__gxx_personality_v0 {
  %3 = getelementptr inbounds i8, ptr %1, i64 16
  %4 = load i64, ptr %3, align 8
  %5 = inttoptr i64 %4 to ptr
  %.sroa.01.0.copyload.i.i = load i64, ptr %1, align 8
  %.sroa.22.0..sroa_idx.i.i = getelementptr inbounds i8, ptr %1, i64 8
  %.sroa.22.0.copyload.i.i = load ptr, ptr %.sroa.22.0..sroa_idx.i.i, align 8
  %6 = load ptr, ptr %5, align 8
  %7 = getelementptr inbounds i8, ptr %6, i64 8
  %8 = load ptr, ptr %7, align 8
  invoke void %8(ptr noundef nonnull align 8 dereferenceable(8) %5, i64 %.sroa.01.0.copyload.i.i, ptr %.sroa.22.0.copyload.i.i)
          to label %_ZN5boost7context6detail12fiber_recordINS0_5fiberEN3nix21VirtualStackAllocatorEZNS_11coroutines26detail14push_coroutineIbE13control_blockC1IS5_ZZNS4_12sourceToSinkESt8functionIFvRNS4_6SourceEEEEN12SourceToSinkclESt17basic_string_viewIcSt11char_traitsIcEEEUlRNS7_14pull_coroutineIbEEE_EENS0_12preallocatedEOT_OT0_EUlOS3_E_E10deallocateEv.exit unwind label %9

9:                                                ; preds = %2
  %10 = landingpad { ptr, i32 }
          catch ptr null
  %11 = extractvalue { ptr, i32 } %10, 0
  tail call void @__clang_call_terminate(ptr %11) #38
  unreachable

_ZN5boost7context6detail12fiber_recordINS0_5fiberEN3nix21VirtualStackAllocatorEZNS_11coroutines26detail14push_coroutineIbE13control_blockC1IS5_ZZNS4_12sourceToSinkESt8functionIFvRNS4_6SourceEEEEN12SourceToSinkclESt17basic_string_viewIcSt11char_traitsIcEEEUlRNS7_14pull_coroutineIbEEE_EENS0_12preallocatedEOT_OT0_EUlOS3_E_E10deallocateEv.exit: ; preds = %2
  ret { ptr, ptr } zeroinitializer
}